; Function Attrs: mustprogress nofree norecurse nosync nounwind memory(readwrite, inaccessiblemem: none) uwtable
define hidden void @_ZN8JVMState14adapt_positionEi(ptr nocapture noundef nonnull align 8 dereferenceable(64) %0, i32 noundef %1) local_unnamed_addr #7 align 2 {
  %3 = insertelement <4 x i32> poison, i32 %1, i64 0
  %4 = shufflevector <4 x i32> %3, <4 x i32> poison, <4 x i32> zeroinitializer
  br label %5

5:                                                ; preds = %2, %5
  %.017 = phi ptr [ %0, %2 ], [ %12, %5 ]
  %6 = getelementptr inbounds i8, ptr %.017, i64 12
  %7 = load <4 x i32>, ptr %6, align 4
  %8 = add <4 x i32> %7, %4
  store <4 x i32> %8, ptr %6, align 4
  %9 = getelementptr inbounds i8, ptr %.017, i64 28
  %10 = load i32, ptr %9, align 4
  %11 = add i32 %10, %1
  store i32 %11, ptr %9, align 4
  %12 = load ptr, ptr %.017, align 8
  %.not = icmp eq ptr %12, null
  br i1 %.not, label %13, label %5, !llvm.loop !12

13:                                               ; preds = %5
  ret void
}